target datalayout = "e-m:e-p270:32:32-p271:32:32-p272:64:64-i64:64-i128:128-f80:128-n8:16:32:64-S128"
target triple = "x86_64-pc-linux-gnu"

%struct.mbedtls_x509_authority = type { %struct.mbedtls_asn1_buf, %struct.mbedtls_asn1_sequence, %struct.mbedtls_asn1_buf, %struct.mbedtls_asn1_buf }
%struct.mbedtls_asn1_sequence = type { %struct.mbedtls_asn1_buf, ptr }
%struct.mbedtls_asn1_buf = type { i32, i64, ptr }

@.str.25 = private unnamed_addr constant [122 x i8] c"generated/home/dtcxzyw/WorkSpace/Projects/compilers/llvm-opt-benchmark/bench/lief/bench_build/mbed_src/library/x509_crt.c\00", align 1

; Function Attrs: inlinehint nounwind uwtable
define internal i32 @mbedtls_error_add(i32 noundef %0, i32 noundef %1, ptr noundef %2, i32 noundef %3) #9 {
  %5 = alloca i32, align 4
  %6 = alloca i32, align 4
  %7 = alloca ptr, align 8
  %8 = alloca i32, align 4
  store i32 %0, ptr %5, align 4, !tbaa !12
  store i32 %1, ptr %6, align 4, !tbaa !12
  store ptr %2, ptr %7, align 8, !tbaa !8
  store i32 %3, ptr %8, align 4, !tbaa !12
  %9 = load i32, ptr %5, align 4, !tbaa !12
  %10 = load i32, ptr %6, align 4, !tbaa !12
  %11 = add nsw i32 %9, %10
  ret i32 %11
}

; Function Attrs: nounwind uwtable
define internal i32 @x509_get_authority_key_id(ptr noundef %0, ptr noundef %1, ptr noundef %2) #0 {
  %4 = alloca i32, align 4
  %5 = alloca ptr, align 8
  %6 = alloca ptr, align 8
  %7 = alloca ptr, align 8
  %8 = alloca i32, align 4
  %9 = alloca i64, align 8
  %10 = alloca i32, align 4
  store ptr %0, ptr %5, align 8, !tbaa !62
  store ptr %1, ptr %6, align 8, !tbaa !8
  store ptr %2, ptr %7, align 8, !tbaa !126
  call void @llvm.lifetime.start.p0(i64 4, ptr %8) #10
  store i32 -110, ptr %8, align 4, !tbaa !12
  call void @llvm.lifetime.start.p0(i64 8, ptr %9) #10
  store i64 0, ptr %9, align 8, !tbaa !10
  %11 = load ptr, ptr %5, align 8, !tbaa !62
  %12 = load ptr, ptr %6, align 8, !tbaa !8
  %13 = call i32 @mbedtls_asn1_get_tag(ptr noundef %11, ptr noundef %12, ptr noundef %9, i32 noundef 48)
  store i32 %13, ptr %8, align 4, !tbaa !12
  %14 = icmp ne i32 %13, 0
  br i1 %14, label %15, label %18

15:                                               ; preds = %3
  %16 = load i32, ptr %8, align 4, !tbaa !12
  %17 = call i32 @mbedtls_error_add(i32 noundef -9472, i32 noundef %16, ptr noundef @.str.25, i32 noundef 629)
  store i32 %17, ptr %4, align 4
  store i32 1, ptr %10, align 4
  br label %115

18:                                               ; preds = %3
  %19 = load ptr, ptr %5, align 8, !tbaa !62
  %20 = load ptr, ptr %19, align 8, !tbaa !8
  %21 = load i64, ptr %9, align 8, !tbaa !10
  %22 = getelementptr inbounds nuw i8, ptr %20, i64 %21
  %23 = load ptr, ptr %6, align 8, !tbaa !8
  %24 = icmp ne ptr %22, %23
  br i1 %24, label %25, label %27

25:                                               ; preds = %18
  %26 = call i32 @mbedtls_error_add(i32 noundef -9472, i32 noundef -102, ptr noundef @.str.25, i32 noundef 634)
  store i32 %26, ptr %4, align 4
  store i32 1, ptr %10, align 4
  br label %115

27:                                               ; preds = %18
  %28 = load ptr, ptr %5, align 8, !tbaa !62
  %29 = load ptr, ptr %6, align 8, !tbaa !8
  %30 = call i32 @mbedtls_asn1_get_tag(ptr noundef %28, ptr noundef %29, ptr noundef %9, i32 noundef 128)
  store i32 %30, ptr %8, align 4, !tbaa !12
  %31 = load i32, ptr %8, align 4, !tbaa !12
  %32 = icmp eq i32 %31, 0
  br i1 %32, label %33, label %50

33:                                               ; preds = %27
  %34 = load i64, ptr %9, align 8, !tbaa !10
  %35 = load ptr, ptr %7, align 8, !tbaa !126
  %36 = getelementptr inbounds nuw %struct.mbedtls_x509_authority, ptr %35, i32 0, i32 0
  %37 = getelementptr inbounds nuw %struct.mbedtls_asn1_buf, ptr %36, i32 0, i32 1
  store i64 %34, ptr %37, align 8, !tbaa !128
  %38 = load ptr, ptr %5, align 8, !tbaa !62
  %39 = load ptr, ptr %38, align 8, !tbaa !8
  %40 = load ptr, ptr %7, align 8, !tbaa !126
  %41 = getelementptr inbounds nuw %struct.mbedtls_x509_authority, ptr %40, i32 0, i32 0
  %42 = getelementptr inbounds nuw %struct.mbedtls_asn1_buf, ptr %41, i32 0, i32 2
  store ptr %39, ptr %42, align 8, !tbaa !129
  %43 = load ptr, ptr %7, align 8, !tbaa !126
  %44 = getelementptr inbounds nuw %struct.mbedtls_x509_authority, ptr %43, i32 0, i32 0
  %45 = getelementptr inbounds nuw %struct.mbedtls_asn1_buf, ptr %44, i32 0, i32 0
  store i32 4, ptr %45, align 8, !tbaa !130
  %46 = load i64, ptr %9, align 8, !tbaa !10
  %47 = load ptr, ptr %5, align 8, !tbaa !62
  %48 = load ptr, ptr %47, align 8, !tbaa !8
  %49 = getelementptr inbounds nuw i8, ptr %48, i64 %46
  store ptr %49, ptr %47, align 8, !tbaa !8
  br label %57

50:                                               ; preds = %27
  %51 = load i32, ptr %8, align 4, !tbaa !12
  %52 = icmp ne i32 %51, -98
  br i1 %52, label %53, label %56

53:                                               ; preds = %50
  %54 = load i32, ptr %8, align 4, !tbaa !12
  %55 = call i32 @mbedtls_error_add(i32 noundef -9472, i32 noundef %54, ptr noundef @.str.25, i32 noundef 651)
  store i32 %55, ptr %4, align 4
  store i32 1, ptr %10, align 4
  br label %115

56:                                               ; preds = %50
  br label %57

57:                                               ; preds = %56, %33
  %58 = load ptr, ptr %5, align 8, !tbaa !62
  %59 = load ptr, ptr %58, align 8, !tbaa !8
  %60 = load ptr, ptr %6, align 8, !tbaa !8
  %61 = icmp ult ptr %59, %60
  br i1 %61, label %62, label %108

62:                                               ; preds = %57
  %63 = load ptr, ptr %5, align 8, !tbaa !62
  %64 = load ptr, ptr %6, align 8, !tbaa !8
  %65 = call i32 @mbedtls_asn1_get_tag(ptr noundef %63, ptr noundef %64, ptr noundef %9, i32 noundef 161)
  store i32 %65, ptr %8, align 4, !tbaa !12
  %66 = icmp ne i32 %65, 0
  br i1 %66, label %67, label %70

67:                                               ; preds = %62
  %68 = load i32, ptr %8, align 4, !tbaa !12
  %69 = call i32 @mbedtls_error_add(i32 noundef -9472, i32 noundef %68, ptr noundef @.str.25, i32 noundef 661)
  store i32 %69, ptr %4, align 4
  store i32 1, ptr %10, align 4
  br label %115

70:                                               ; preds = %62
  %71 = load ptr, ptr %5, align 8, !tbaa !62
  %72 = load ptr, ptr %5, align 8, !tbaa !62
  %73 = load ptr, ptr %72, align 8, !tbaa !8
  %74 = load i64, ptr %9, align 8, !tbaa !10
  %75 = getelementptr inbounds nuw i8, ptr %73, i64 %74
  %76 = load ptr, ptr %7, align 8, !tbaa !126
  %77 = getelementptr inbounds nuw %struct.mbedtls_x509_authority, ptr %76, i32 0, i32 1
  %78 = call i32 @mbedtls_x509_get_subject_alt_name_ext(ptr noundef %71, ptr noundef %75, ptr noundef %77)
  store i32 %78, ptr %8, align 4, !tbaa !12
  %79 = load i32, ptr %8, align 4, !tbaa !12
  %80 = icmp ne i32 %79, 0
  br i1 %80, label %81, label %83

81:                                               ; preds = %70
  %82 = load i32, ptr %8, align 4, !tbaa !12
  store i32 %82, ptr %4, align 4
  store i32 1, ptr %10, align 4
  br label %115

83:                                               ; preds = %70
  %84 = load ptr, ptr %5, align 8, !tbaa !62
  %85 = load ptr, ptr %6, align 8, !tbaa !8
  %86 = call i32 @mbedtls_asn1_get_tag(ptr noundef %84, ptr noundef %85, ptr noundef %9, i32 noundef 130)
  store i32 %86, ptr %8, align 4, !tbaa !12
  %87 = icmp ne i32 %86, 0
  br i1 %87, label %88, label %91

88:                                               ; preds = %83
  %89 = load i32, ptr %8, align 4, !tbaa !12
  %90 = call i32 @mbedtls_error_add(i32 noundef -9472, i32 noundef %89, ptr noundef @.str.25, i32 noundef 674)
  store i32 %90, ptr %4, align 4
  store i32 1, ptr %10, align 4
  br label %115

91:                                               ; preds = %83
  %92 = load i64, ptr %9, align 8, !tbaa !10
  %93 = load ptr, ptr %7, align 8, !tbaa !126
  %94 = getelementptr inbounds nuw %struct.mbedtls_x509_authority, ptr %93, i32 0, i32 2
  %95 = getelementptr inbounds nuw %struct.mbedtls_asn1_buf, ptr %94, i32 0, i32 1
  store i64 %92, ptr %95, align 8, !tbaa !131
  %96 = load ptr, ptr %5, align 8, !tbaa !62
  %97 = load ptr, ptr %96, align 8, !tbaa !8
  %98 = load ptr, ptr %7, align 8, !tbaa !126
  %99 = getelementptr inbounds nuw %struct.mbedtls_x509_authority, ptr %98, i32 0, i32 2
  %100 = getelementptr inbounds nuw %struct.mbedtls_asn1_buf, ptr %99, i32 0, i32 2
  store ptr %97, ptr %100, align 8, !tbaa !132
  %101 = load ptr, ptr %7, align 8, !tbaa !126
  %102 = getelementptr inbounds nuw %struct.mbedtls_x509_authority, ptr %101, i32 0, i32 2
  %103 = getelementptr inbounds nuw %struct.mbedtls_asn1_buf, ptr %102, i32 0, i32 0
  store i32 2, ptr %103, align 8, !tbaa !133
  %104 = load i64, ptr %9, align 8, !tbaa !10
  %105 = load ptr, ptr %5, align 8, !tbaa !62
  %106 = load ptr, ptr %105, align 8, !tbaa !8
  %107 = getelementptr inbounds nuw i8, ptr %106, i64 %104
  store ptr %107, ptr %105, align 8, !tbaa !8
  br label %108

108:                                              ; preds = %91, %57
  %109 = load ptr, ptr %5, align 8, !tbaa !62
  %110 = load ptr, ptr %109, align 8, !tbaa !8
  %111 = load ptr, ptr %6, align 8, !tbaa !8
  %112 = icmp ne ptr %110, %111
  br i1 %112, label %113, label %114

113:                                              ; preds = %108
  store i32 -9574, ptr %4, align 4
  store i32 1, ptr %10, align 4
  br label %115

114:                                              ; preds = %108
  store i32 0, ptr %4, align 4
  store i32 1, ptr %10, align 4
  br label %115

115:                                              ; preds = %114, %113, %88, %81, %67, %53, %25, %15
  call void @llvm.lifetime.end.p0(i64 8, ptr %9) #10
  call void @llvm.lifetime.end.p0(i64 4, ptr %8) #10
  %116 = load i32, ptr %4, align 4
  ret i32 %116
}