; Function Attrs: nounwind uwtable
define internal fastcc i32 @x509_get_authority_key_id(ptr noundef nonnull %0, ptr noundef %1, ptr noundef nonnull %2) unnamed_addr #0 {
  %4 = alloca i64, align 8
  call void @llvm.lifetime.start.p0(i64 8, ptr nonnull %4) #17
  store i64 0, ptr %4, align 8, !tbaa !25
  %5 = call i32 @mbedtls_asn1_get_tag(ptr noundef nonnull %0, ptr noundef %1, ptr noundef nonnull %4, i32 noundef 48) #17
  %.not = icmp eq i32 %5, 0
  br i1 %.not, label %8, label %6

6:                                                ; preds = %3
  %7 = add nsw i32 %5, -9472
  br label %48

8:                                                ; preds = %3
  %9 = load ptr, ptr %0, align 8, !tbaa !24
  %10 = load i64, ptr %4, align 8, !tbaa !25
  %11 = getelementptr inbounds nuw i8, ptr %9, i64 %10
  %.not41 = icmp eq ptr %11, %1
  br i1 %.not41, label %12, label %48

12:                                               ; preds = %8
  %13 = call i32 @mbedtls_asn1_get_tag(ptr noundef nonnull %0, ptr noundef %1, ptr noundef nonnull %4, i32 noundef 128) #17
  switch i32 %13, label %20 [
    i32 0, label %14
    i32 -98, label %._crit_edge
  ]

._crit_edge:                                      ; preds = %12
  %.pre = load ptr, ptr %0, align 8, !tbaa !24
  br label %22

14:                                               ; preds = %12
  %15 = load i64, ptr %4, align 8, !tbaa !25
  %16 = getelementptr inbounds nuw i8, ptr %2, i64 8
  store i64 %15, ptr %16, align 8, !tbaa !148
  %17 = load ptr, ptr %0, align 8, !tbaa !24
  %18 = getelementptr inbounds nuw i8, ptr %2, i64 16
  store ptr %17, ptr %18, align 8, !tbaa !149
  store i32 4, ptr %2, align 8, !tbaa !150
  %19 = getelementptr inbounds nuw i8, ptr %17, i64 %15
  store ptr %19, ptr %0, align 8, !tbaa !24
  br label %22

20:                                               ; preds = %12
  %21 = add nsw i32 %13, -9472
  br label %48

22:                                               ; preds = %._crit_edge, %14
  %23 = phi ptr [ %.pre, %._crit_edge ], [ %19, %14 ]
  %24 = icmp ult ptr %23, %1
  br i1 %24, label %25, label %46

25:                                               ; preds = %22
  %26 = call i32 @mbedtls_asn1_get_tag(ptr noundef nonnull %0, ptr noundef nonnull %1, ptr noundef nonnull %4, i32 noundef 161) #17
  %.not43 = icmp eq i32 %26, 0
  br i1 %.not43, label %29, label %27

27:                                               ; preds = %25
  %28 = add nsw i32 %26, -9472
  br label %48

29:                                               ; preds = %25
  %30 = load ptr, ptr %0, align 8, !tbaa !24
  %31 = load i64, ptr %4, align 8, !tbaa !25
  %32 = getelementptr inbounds nuw i8, ptr %30, i64 %31
  %33 = getelementptr inbounds nuw i8, ptr %2, i64 24
  %34 = call i32 @mbedtls_x509_get_subject_alt_name_ext(ptr noundef nonnull %0, ptr noundef %32, ptr noundef nonnull %33) #17
  %.not44 = icmp eq i32 %34, 0
  br i1 %.not44, label %35, label %48

35:                                               ; preds = %29
  %36 = call i32 @mbedtls_asn1_get_tag(ptr noundef nonnull %0, ptr noundef nonnull %1, ptr noundef nonnull %4, i32 noundef 130) #17
  %.not45 = icmp eq i32 %36, 0
  br i1 %.not45, label %39, label %37

37:                                               ; preds = %35
  %38 = add nsw i32 %36, -9472
  br label %48

39:                                               ; preds = %35
  %40 = load i64, ptr %4, align 8, !tbaa !25
  %41 = getelementptr inbounds nuw i8, ptr %2, i64 56
  %42 = getelementptr inbounds nuw i8, ptr %2, i64 64
  store i64 %40, ptr %42, align 8, !tbaa !151
  %43 = load ptr, ptr %0, align 8, !tbaa !24
  %44 = getelementptr inbounds nuw i8, ptr %2, i64 72
  store ptr %43, ptr %44, align 8, !tbaa !152
  store i32 2, ptr %41, align 8, !tbaa !153
  %45 = getelementptr inbounds nuw i8, ptr %43, i64 %40
  store ptr %45, ptr %0, align 8, !tbaa !24
  br label %46

46:                                               ; preds = %39, %22
  %47 = phi ptr [ %45, %39 ], [ %23, %22 ]
  %.not46 = icmp eq ptr %47, %1
  %. = select i1 %.not46, i32 0, i32 -9574
  br label %48

48:                                               ; preds = %8, %46, %29, %37, %27, %20, %6
  %.0 = phi i32 [ %7, %6 ], [ %28, %27 ], [ %38, %37 ], [ %21, %20 ], [ %34, %29 ], [ %., %46 ], [ -9574, %8 ]
  call void @llvm.lifetime.end.p0(i64 8, ptr nonnull %4) #17
  ret i32 %.0
}